target datalayout = "e-m:e-p270:32:32-p271:32:32-p272:64:64-i64:64-i128:128-f80:128-n8:16:32:64-S128"
target triple = "x86_64-pc-linux-gnu"

@.str = private unnamed_addr constant [30 x i8] c"REPLAYGAIN_REFERENCE_LOUDNESS\00", align 1
@.str.5 = private unnamed_addr constant [24 x i8] c"memory allocation error\00", align 1
@reference_format_ = internal global ptr @.str.9, align 8
@ReplayGainReferenceLoudness = external global float, align 4

; Function Attrs: nounwind sspstrong uwtable
define dso_local ptr @grabbag__replaygain_store_to_vorbiscomment_reference(ptr noundef %0) #0 {
  %2 = alloca ptr, align 8
  %3 = alloca ptr, align 8
  store ptr %0, ptr %3, align 8, !tbaa !44
  %4 = load ptr, ptr %3, align 8, !tbaa !44
  %5 = call i32 @FLAC__metadata_object_vorbiscomment_remove_entries_matching(ptr noundef %4, ptr noundef @.str)
  %6 = icmp slt i32 %5, 0
  br i1 %6, label %7, label %8

7:                                                ; preds = %1
  store ptr @.str.5, ptr %2, align 8
  br label %16

8:                                                ; preds = %1
  %9 = load ptr, ptr %3, align 8, !tbaa !44
  %10 = load ptr, ptr @reference_format_, align 8, !tbaa !28
  %11 = load float, ptr @ReplayGainReferenceLoudness, align 4, !tbaa !15
  %12 = call i32 @append_tag_(ptr noundef %9, ptr noundef %10, ptr noundef @.str, float noundef %11)
  %13 = icmp ne i32 %12, 0
  br i1 %13, label %15, label %14

14:                                               ; preds = %8
  store ptr @.str.5, ptr %2, align 8
  br label %16

15:                                               ; preds = %8
  store ptr null, ptr %2, align 8
  br label %16

16:                                               ; preds = %15, %14, %7
  %17 = load ptr, ptr %2, align 8
  ret ptr %17
}