; Function Attrs: nounwind sspstrong uwtable
define dso_local ptr @grabbag__replaygain_store_to_vorbiscomment_reference(ptr noundef %0) local_unnamed_addr #0 {
  %2 = tail call i32 @FLAC__metadata_object_vorbiscomment_remove_entries_matching(ptr noundef %0, ptr noundef nonnull @.str) #14
  %3 = icmp slt i32 %2, 0
  br i1 %3, label %7, label %4

4:                                                ; preds = %1
  %5 = load float, ptr @ReplayGainReferenceLoudness, align 4, !tbaa !13
  %6 = tail call fastcc i32 @append_tag_(ptr noundef %0, ptr noundef nonnull @.str.9, ptr noundef nonnull @.str, float noundef %5)
  %.not = icmp eq i32 %6, 0
  %.str.5. = select i1 %.not, ptr @.str.5, ptr null
  br label %7

7:                                                ; preds = %4, %1
  %.0 = phi ptr [ @.str.5, %1 ], [ %.str.5., %4 ]
  ret ptr %.0
}